; ModuleID = '32/1983.c'
source_filename = "32/1983.c"
target datalayout = "e-m:e-p270:32:32-p271:32:32-p272:64:64-i64:64-f80:128-n8:16:32:64-S128"
target triple = "x86_64-pc-linux-gnu"

@.str = private unnamed_addr constant [3 x i8] c"%d\00", align 1
@.str.1 = private unnamed_addr constant [5 x i8] c"%s%s\00", align 1
@.str.2 = private unnamed_addr constant [3 x i8] c"%c\00", align 1
@.str.3 = private unnamed_addr constant [2 x i8] c"\0A\00", align 1

; Function Attrs: noinline nounwind uwtable
define dso_local void @main() #0 {
  %1 = alloca i32, align 4
  %2 = alloca i32, align 4
  %3 = alloca i32, align 4
  %4 = alloca i32, align 4
  %5 = alloca i32, align 4
  %6 = alloca i32, align 4
  %7 = alloca i32, align 4
  %8 = alloca [110 x i8], align 16
  %9 = alloca [110 x i8], align 16
  %10 = alloca [110 x i8], align 16
  %11 = bitcast [110 x i8]* %10 to i8*
  call void @llvm.memset.p0i8.i64(i8* align 16 %11, i8 0, i64 110, i1 false)
  %12 = call i32 (i8*, ...) @__isoc99_scanf(i8* getelementptr inbounds ([3 x i8], [3 x i8]* @.str, i64 0, i64 0), i32* %1)
  store i32 1, i32* %2, align 4
  br label %13

13:                                               ; preds = %162, %0
  %14 = load i32, i32* %2, align 4
  %15 = load i32, i32* %1, align 4
  %16 = icmp sle i32 %14, %15
  br i1 %16, label %17, label %165

17:                                               ; preds = %13
  %18 = call i32 (i8*, ...) @__isoc99_scanf(i8* getelementptr inbounds ([5 x i8], [5 x i8]* @.str.1, i64 0, i64 0), [110 x i8]* %8, [110 x i8]* %9)
  %19 = getelementptr inbounds [110 x i8], [110 x i8]* %8, i64 0, i64 0
  %20 = call i64 @strlen(i8* %19) #4
  %21 = trunc i64 %20 to i32
  store i32 %21, i32* %5, align 4
  %22 = getelementptr inbounds [110 x i8], [110 x i8]* %9, i64 0, i64 0
  %23 = call i64 @strlen(i8* %22) #4
  %24 = trunc i64 %23 to i32
  store i32 %24, i32* %6, align 4
  store i32 1, i32* %3, align 4
  br label %25

25:                                               ; preds = %101, %17
  %26 = load i32, i32* %3, align 4
  %27 = load i32, i32* %6, align 4
  %28 = icmp sle i32 %26, %27
  br i1 %28, label %29, label %104

29:                                               ; preds = %25
  %30 = load i32, i32* %5, align 4
  %31 = load i32, i32* %3, align 4
  %32 = sub nsw i32 %30, %31
  %33 = sext i32 %32 to i64
  %34 = getelementptr inbounds [110 x i8], [110 x i8]* %8, i64 0, i64 %33
  %35 = load i8, i8* %34, align 1
  %36 = sext i8 %35 to i32
  %37 = load i32, i32* %6, align 4
  %38 = load i32, i32* %3, align 4
  %39 = sub nsw i32 %37, %38
  %40 = sext i32 %39 to i64
  %41 = getelementptr inbounds [110 x i8], [110 x i8]* %9, i64 0, i64 %40
  %42 = load i8, i8* %41, align 1
  %43 = sext i8 %42 to i32
  %44 = icmp sge i32 %36, %43
  br i1 %44, label %45, label %68

45:                                               ; preds = %29
  %46 = load i32, i32* %5, align 4
  %47 = load i32, i32* %3, align 4
  %48 = sub nsw i32 %46, %47
  %49 = sext i32 %48 to i64
  %50 = getelementptr inbounds [110 x i8], [110 x i8]* %8, i64 0, i64 %49
  %51 = load i8, i8* %50, align 1
  %52 = sext i8 %51 to i32
  %53 = load i32, i32* %6, align 4
  %54 = load i32, i32* %3, align 4
  %55 = sub nsw i32 %53, %54
  %56 = sext i32 %55 to i64
  %57 = getelementptr inbounds [110 x i8], [110 x i8]* %9, i64 0, i64 %56
  %58 = load i8, i8* %57, align 1
  %59 = sext i8 %58 to i32
  %60 = sub nsw i32 %52, %59
  %61 = add nsw i32 %60, 48
  %62 = trunc i32 %61 to i8
  %63 = load i32, i32* %5, align 4
  %64 = load i32, i32* %3, align 4
  %65 = sub nsw i32 %63, %64
  %66 = sext i32 %65 to i64
  %67 = getelementptr inbounds [110 x i8], [110 x i8]* %10, i64 0, i64 %66
  store i8 %62, i8* %67, align 1
  br label %100

68:                                               ; preds = %29
  %69 = load i32, i32* %5, align 4
  %70 = load i32, i32* %3, align 4
  %71 = sub nsw i32 %69, %70
  %72 = sext i32 %71 to i64
  %73 = getelementptr inbounds [110 x i8], [110 x i8]* %8, i64 0, i64 %72
  %74 = load i8, i8* %73, align 1
  %75 = sext i8 %74 to i32
  %76 = add nsw i32 %75, 10
  %77 = load i32, i32* %6, align 4
  %78 = load i32, i32* %3, align 4
  %79 = sub nsw i32 %77, %78
  %80 = sext i32 %79 to i64
  %81 = getelementptr inbounds [110 x i8], [110 x i8]* %9, i64 0, i64 %80
  %82 = load i8, i8* %81, align 1
  %83 = sext i8 %82 to i32
  %84 = sub nsw i32 %76, %83
  %85 = add nsw i32 %84, 48
  %86 = trunc i32 %85 to i8
  %87 = load i32, i32* %5, align 4
  %88 = load i32, i32* %3, align 4
  %89 = sub nsw i32 %87, %88
  %90 = sext i32 %89 to i64
  %91 = getelementptr inbounds [110 x i8], [110 x i8]* %10, i64 0, i64 %90
  store i8 %86, i8* %91, align 1
  %92 = load i32, i32* %5, align 4
  %93 = load i32, i32* %3, align 4
  %94 = sub nsw i32 %92, %93
  %95 = sub nsw i32 %94, 1
  %96 = sext i32 %95 to i64
  %97 = getelementptr inbounds [110 x i8], [110 x i8]* %8, i64 0, i64 %96
  %98 = load i8, i8* %97, align 1
  %99 = add i8 %98, -1
  store i8 %99, i8* %97, align 1
  br label %100

100:                                              ; preds = %68, %45
  br label %101

101:                                              ; preds = %100
  %102 = load i32, i32* %3, align 4
  %103 = add nsw i32 %102, 1
  store i32 %103, i32* %3, align 4
  br label %25

104:                                              ; preds = %25
  store i32 0, i32* %3, align 4
  br label %105

105:                                              ; preds = %119, %104
  %106 = load i32, i32* %3, align 4
  %107 = load i32, i32* %5, align 4
  %108 = load i32, i32* %6, align 4
  %109 = sub nsw i32 %107, %108
  %110 = icmp slt i32 %106, %109
  br i1 %110, label %111, label %122

111:                                              ; preds = %105
  %112 = load i32, i32* %3, align 4
  %113 = sext i32 %112 to i64
  %114 = getelementptr inbounds [110 x i8], [110 x i8]* %8, i64 0, i64 %113
  %115 = load i8, i8* %114, align 1
  %116 = load i32, i32* %3, align 4
  %117 = sext i32 %116 to i64
  %118 = getelementptr inbounds [110 x i8], [110 x i8]* %10, i64 0, i64 %117
  store i8 %115, i8* %118, align 1
  br label %119

119:                                              ; preds = %111
  %120 = load i32, i32* %3, align 4
  %121 = add nsw i32 %120, 1
  store i32 %121, i32* %3, align 4
  br label %105

122:                                              ; preds = %105
  %123 = getelementptr inbounds [110 x i8], [110 x i8]* %10, i64 0, i64 0
  %124 = call i64 @strlen(i8* %123) #4
  %125 = trunc i64 %124 to i32
  store i32 %125, i32* %7, align 4
  store i32 0, i32* %4, align 4
  br label %126

126:                                              ; preds = %140, %122
  %127 = load i32, i32* %4, align 4
  %128 = load i32, i32* %5, align 4
  %129 = sub nsw i32 %128, 1
  %130 = icmp sle i32 %127, %129
  br i1 %130, label %131, label %143

131:                                              ; preds = %126
  %132 = load i32, i32* %4, align 4
  %133 = sext i32 %132 to i64
  %134 = getelementptr inbounds [110 x i8], [110 x i8]* %10, i64 0, i64 %133
  %135 = load i8, i8* %134, align 1
  %136 = sext i8 %135 to i32
  %137 = icmp ne i32 %136, 48
  br i1 %137, label %138, label %139

138:                                              ; preds = %131
  br label %143

139:                                              ; preds = %131
  br label %140

140:                                              ; preds = %139
  %141 = load i32, i32* %4, align 4
  %142 = add nsw i32 %141, 1
  store i32 %142, i32* %4, align 4
  br label %126

143:                                              ; preds = %138, %126
  %144 = load i32, i32* %4, align 4
  store i32 %144, i32* %3, align 4
  br label %145

145:                                              ; preds = %157, %143
  %146 = load i32, i32* %3, align 4
  %147 = load i32, i32* %5, align 4
  %148 = sub nsw i32 %147, 1
  %149 = icmp sle i32 %146, %148
  br i1 %149, label %150, label %160

150:                                              ; preds = %145
  %151 = load i32, i32* %3, align 4
  %152 = sext i32 %151 to i64
  %153 = getelementptr inbounds [110 x i8], [110 x i8]* %10, i64 0, i64 %152
  %154 = load i8, i8* %153, align 1
  %155 = sext i8 %154 to i32
  %156 = call i32 (i8*, ...) @printf(i8* getelementptr inbounds ([3 x i8], [3 x i8]* @.str.2, i64 0, i64 0), i32 %155)
  br label %157

157:                                              ; preds = %150
  %158 = load i32, i32* %3, align 4
  %159 = add nsw i32 %158, 1
  store i32 %159, i32* %3, align 4
  br label %145

160:                                              ; preds = %145
  %161 = call i32 (i8*, ...) @printf(i8* getelementptr inbounds ([2 x i8], [2 x i8]* @.str.3, i64 0, i64 0))
  br label %162

162:                                              ; preds = %160
  %163 = load i32, i32* %2, align 4
  %164 = add nsw i32 %163, 1
  store i32 %164, i32* %2, align 4
  br label %13

165:                                              ; preds = %13
  ret void
}

; Function Attrs: argmemonly nounwind willreturn
declare void @llvm.memset.p0i8.i64(i8* nocapture writeonly, i8, i64, i1 immarg) #1

declare dso_local i32 @__isoc99_scanf(i8*, ...) #2

; Function Attrs: nounwind readonly
declare dso_local i64 @strlen(i8*) #3

declare dso_local i32 @printf(i8*, ...) #2


!llvm.module.flags = !{!0}
!llvm.ident = !{!1}

!0 = !{i32 1, !"wchar_size", i32 4}
!1 = !{!"clang version 10.0.0-4ubuntu1 "}
